target datalayout = "e-m:e-p270:32:32-p271:32:32-p272:64:64-i64:64-i128:128-f80:128-n8:16:32:64-S128"
target triple = "x86_64-pc-linux-gnu"

%"class.boost::core::basic_string_view" = type { ptr, i64 }
%"struct.boost::urls::detail::url_impl" = type <{ ptr, [8 x i64], [7 x i64], i64, i64, [16 x i8], i16, [2 x i8], i32, i16, i8, [5 x i8] }>
%"class.boost::urls::grammar::string_view_base" = type { %"class.boost::core::basic_string_view" }
%"class.boost::urls::pct_string_view" = type { %"class.boost::urls::grammar::string_view_base", i64 }
%"class.boost::urls::detail::query_ref" = type <{ ptr, ptr, i64, i64, i64, i8, [7 x i8] }>

; Function Attrs: mustprogress nounwind uwtable
define linkonce_odr hidden void @_ZN5boost4core17basic_string_viewIcEC2EPKcm(ptr noundef nonnull align 8 dereferenceable(16) %0, ptr noundef %1, i64 noundef %2) unnamed_addr #1 comdat align 2 {
  %4 = alloca ptr, align 8
  %5 = alloca ptr, align 8
  %6 = alloca i64, align 8
  store ptr %0, ptr %4, align 8, !tbaa !3
  store ptr %1, ptr %5, align 8, !tbaa !3
  store i64 %2, ptr %6, align 8, !tbaa !8
  %7 = load ptr, ptr %4, align 8
  %8 = getelementptr inbounds nuw %"class.boost::core::basic_string_view", ptr %7, i32 0, i32 0
  %9 = load ptr, ptr %5, align 8, !tbaa !3
  store ptr %9, ptr %8, align 8, !tbaa !37
  %10 = getelementptr inbounds nuw %"class.boost::core::basic_string_view", ptr %7, i32 0, i32 1
  %11 = load i64, ptr %6, align 8, !tbaa !8
  store i64 %11, ptr %10, align 8, !tbaa !20
  ret void
}

; Function Attrs: mustprogress nounwind uwtable
define linkonce_odr hidden void @_ZN5boost4urls7grammar16string_view_baseC2EPKcm(ptr noundef nonnull align 8 dereferenceable(16) %0, ptr noundef %1, i64 noundef %2) unnamed_addr #1 comdat align 2 {
  %4 = alloca ptr, align 8
  %5 = alloca ptr, align 8
  %6 = alloca i64, align 8
  store ptr %0, ptr %4, align 8, !tbaa !3
  store ptr %1, ptr %5, align 8, !tbaa !3
  store i64 %2, ptr %6, align 8, !tbaa !8
  %7 = load ptr, ptr %4, align 8
  %8 = getelementptr inbounds nuw %"class.boost::urls::grammar::string_view_base", ptr %7, i32 0, i32 0
  %9 = load ptr, ptr %5, align 8, !tbaa !3
  %10 = load i64, ptr %6, align 8, !tbaa !8
  call void @_ZN5boost4core17basic_string_viewIcEC2EPKcm(ptr noundef nonnull align 8 dereferenceable(16) %8, ptr noundef %9, i64 noundef %10) #5
  ret void
}

; Function Attrs: mustprogress nounwind uwtable
define linkonce_odr hidden void @_ZN5boost4urls15pct_string_viewC2EPKcmm(ptr noundef nonnull align 8 dereferenceable(24) %0, ptr noundef %1, i64 noundef %2, i64 noundef %3) unnamed_addr #1 comdat align 2 {
  %5 = alloca ptr, align 8
  %6 = alloca ptr, align 8
  %7 = alloca i64, align 8
  %8 = alloca i64, align 8
  store ptr %0, ptr %5, align 8, !tbaa !3
  store ptr %1, ptr %6, align 8, !tbaa !3
  store i64 %2, ptr %7, align 8, !tbaa !8
  store i64 %3, ptr %8, align 8, !tbaa !8
  %9 = load ptr, ptr %5, align 8
  %10 = load ptr, ptr %6, align 8, !tbaa !3
  %11 = load i64, ptr %7, align 8, !tbaa !8
  call void @_ZN5boost4urls7grammar16string_view_baseC2EPKcm(ptr noundef nonnull align 8 dereferenceable(16) %9, ptr noundef %10, i64 noundef %11) #5
  %12 = getelementptr inbounds nuw %"class.boost::urls::pct_string_view", ptr %9, i32 0, i32 1
  %13 = load i64, ptr %8, align 8, !tbaa !8
  store i64 %13, ptr %12, align 8, !tbaa !22
  ret void
}

; Function Attrs: inlinehint mustprogress nounwind uwtable
define linkonce_odr hidden void @_ZN5boost4urls27make_pct_string_view_unsafeEPKcmm(ptr dead_on_unwind noalias writable sret(%"class.boost::urls::pct_string_view") align 8 %0, ptr noundef %1, i64 noundef %2, i64 noundef %3) #4 comdat {
  %5 = alloca ptr, align 8
  %6 = alloca i64, align 8
  %7 = alloca i64, align 8
  store ptr %1, ptr %5, align 8, !tbaa !3
  store i64 %2, ptr %6, align 8, !tbaa !8
  store i64 %3, ptr %7, align 8, !tbaa !8
  %8 = load ptr, ptr %5, align 8, !tbaa !3
  %9 = load i64, ptr %6, align 8, !tbaa !8
  %10 = load i64, ptr %7, align 8, !tbaa !8
  call void @_ZN5boost4urls15pct_string_viewC2EPKcmm(ptr noundef nonnull align 8 dereferenceable(24) %0, ptr noundef %8, i64 noundef %9, i64 noundef %10) #5
  ret void
}

; Function Attrs: mustprogress nounwind uwtable
define void @_ZNK5boost4urls6detail9query_ref6bufferEv(ptr dead_on_unwind noalias writable sret(%"class.boost::urls::pct_string_view") align 8 %0, ptr noundef nonnull align 8 dereferenceable(41) %1) #1 align 2 {
  %3 = alloca ptr, align 8
  %4 = alloca i64, align 8
  %5 = alloca i64, align 8
  %6 = alloca i32, align 4
  store ptr %1, ptr %3, align 8, !tbaa !3
  %7 = load ptr, ptr %3, align 8
  %8 = getelementptr inbounds nuw %"class.boost::urls::detail::query_ref", ptr %7, i32 0, i32 0
  %9 = load ptr, ptr %8, align 8, !tbaa !48
  %10 = icmp ne ptr %9, null
  br i1 %10, label %11, label %50

11:                                               ; preds = %2
  call void @llvm.lifetime.start.p0(i64 8, ptr %4) #5
  %12 = getelementptr inbounds nuw %"class.boost::urls::detail::query_ref", ptr %7, i32 0, i32 0
  %13 = load ptr, ptr %12, align 8, !tbaa !48
  %14 = getelementptr inbounds nuw %"struct.boost::urls::detail::url_impl", ptr %13, i32 0, i32 1
  %15 = getelementptr inbounds [8 x i64], ptr %14, i64 0, i64 5
  %16 = load i64, ptr %15, align 8, !tbaa !8
  store i64 %16, ptr %4, align 8, !tbaa !8
  call void @llvm.lifetime.start.p0(i64 8, ptr %5) #5
  %17 = getelementptr inbounds nuw %"class.boost::urls::detail::query_ref", ptr %7, i32 0, i32 0
  %18 = load ptr, ptr %17, align 8, !tbaa !48
  %19 = getelementptr inbounds nuw %"struct.boost::urls::detail::url_impl", ptr %18, i32 0, i32 1
  %20 = getelementptr inbounds [8 x i64], ptr %19, i64 0, i64 6
  %21 = load i64, ptr %20, align 8, !tbaa !8
  store i64 %21, ptr %5, align 8, !tbaa !8
  %22 = load i64, ptr %4, align 8, !tbaa !8
  %23 = load i64, ptr %5, align 8, !tbaa !8
  %24 = icmp ult i64 %22, %23
  br i1 %24, label %25, label %42

25:                                               ; preds = %11
  %26 = load i64, ptr %4, align 8, !tbaa !8
  %27 = add i64 %26, 1
  store i64 %27, ptr %4, align 8, !tbaa !8
  %28 = getelementptr inbounds nuw %"class.boost::urls::detail::query_ref", ptr %7, i32 0, i32 0
  %29 = load ptr, ptr %28, align 8, !tbaa !48
  %30 = getelementptr inbounds nuw %"struct.boost::urls::detail::url_impl", ptr %29, i32 0, i32 0
  %31 = load ptr, ptr %30, align 8, !tbaa !36
  %32 = load i64, ptr %4, align 8, !tbaa !8
  %33 = getelementptr inbounds nuw i8, ptr %31, i64 %32
  %34 = load i64, ptr %5, align 8, !tbaa !8
  %35 = load i64, ptr %4, align 8, !tbaa !8
  %36 = sub i64 %34, %35
  %37 = getelementptr inbounds nuw %"class.boost::urls::detail::query_ref", ptr %7, i32 0, i32 0
  %38 = load ptr, ptr %37, align 8, !tbaa !48
  %39 = getelementptr inbounds nuw %"struct.boost::urls::detail::url_impl", ptr %38, i32 0, i32 2
  %40 = getelementptr inbounds [7 x i64], ptr %39, i64 0, i64 5
  %41 = load i64, ptr %40, align 8, !tbaa !8
  call void @_ZN5boost4urls27make_pct_string_view_unsafeEPKcmm(ptr dead_on_unwind writable sret(%"class.boost::urls::pct_string_view") align 8 %0, ptr noundef %33, i64 noundef %36, i64 noundef %41) #5
  store i32 1, ptr %6, align 4
  br label %49

42:                                               ; preds = %11
  %43 = getelementptr inbounds nuw %"class.boost::urls::detail::query_ref", ptr %7, i32 0, i32 0
  %44 = load ptr, ptr %43, align 8, !tbaa !48
  %45 = getelementptr inbounds nuw %"struct.boost::urls::detail::url_impl", ptr %44, i32 0, i32 0
  %46 = load ptr, ptr %45, align 8, !tbaa !36
  %47 = load i64, ptr %4, align 8, !tbaa !8
  %48 = getelementptr inbounds nuw i8, ptr %46, i64 %47
  call void @_ZN5boost4urls27make_pct_string_view_unsafeEPKcmm(ptr dead_on_unwind writable sret(%"class.boost::urls::pct_string_view") align 8 %0, ptr noundef %48, i64 noundef 0, i64 noundef 0) #5
  store i32 1, ptr %6, align 4
  br label %49

49:                                               ; preds = %42, %25
  call void @llvm.lifetime.end.p0(i64 8, ptr %5) #5
  call void @llvm.lifetime.end.p0(i64 8, ptr %4) #5
  br label %57

50:                                               ; preds = %2
  %51 = getelementptr inbounds nuw %"class.boost::urls::detail::query_ref", ptr %7, i32 0, i32 1
  %52 = load ptr, ptr %51, align 8, !tbaa !51
  %53 = getelementptr inbounds nuw %"class.boost::urls::detail::query_ref", ptr %7, i32 0, i32 2
  %54 = load i64, ptr %53, align 8, !tbaa !52
  %55 = getelementptr inbounds nuw %"class.boost::urls::detail::query_ref", ptr %7, i32 0, i32 4
  %56 = load i64, ptr %55, align 8, !tbaa !54
  call void @_ZN5boost4urls27make_pct_string_view_unsafeEPKcmm(ptr dead_on_unwind writable sret(%"class.boost::urls::pct_string_view") align 8 %0, ptr noundef %52, i64 noundef %54, i64 noundef %56) #5
  br label %57

57:                                               ; preds = %50, %49
  ret void
}