; Function Attrs: mustprogress nofree norecurse nosync nounwind willreturn memory(read, argmem: readwrite, inaccessiblemem: none) uwtable
define void @_ZNK5boost4urls6detail9query_ref6bufferEv(ptr dead_on_unwind noalias nocapture writable writeonly sret(%"class.boost::urls::pct_string_view") align 8 %0, ptr nocapture noundef nonnull readonly align 8 dereferenceable(41) %1) local_unnamed_addr #9 align 2 {
  %3 = load ptr, ptr %1, align 8, !tbaa !49
  %.not = icmp eq ptr %3, null
  br i1 %.not, label %23, label %4

4:                                                ; preds = %2
  %5 = getelementptr inbounds i8, ptr %3, i64 48
  %6 = load i64, ptr %5, align 8, !tbaa !13
  %7 = getelementptr inbounds i8, ptr %3, i64 56
  %8 = load i64, ptr %7, align 8, !tbaa !13
  %9 = icmp ult i64 %6, %8
  br i1 %9, label %10, label %19

10:                                               ; preds = %4
  %11 = add nuw i64 %6, 1
  %12 = load ptr, ptr %3, align 8, !tbaa !31
  %13 = getelementptr inbounds nuw i8, ptr %12, i64 %11
  %14 = sub i64 %8, %11
  %15 = getelementptr inbounds i8, ptr %3, i64 112
  %16 = load i64, ptr %15, align 8, !tbaa !13
  store ptr %13, ptr %0, align 8, !tbaa !32, !alias.scope !57
  %17 = getelementptr inbounds nuw i8, ptr %0, i64 8
  store i64 %14, ptr %17, align 8, !tbaa !16, !alias.scope !57
  %18 = getelementptr inbounds nuw i8, ptr %0, i64 16
  store i64 %16, ptr %18, align 8, !tbaa !18, !alias.scope !57
  br label %32

19:                                               ; preds = %4
  %20 = load ptr, ptr %3, align 8, !tbaa !31
  %21 = getelementptr inbounds nuw i8, ptr %20, i64 %6
  store ptr %21, ptr %0, align 8, !tbaa !32, !alias.scope !60
  %22 = getelementptr inbounds nuw i8, ptr %0, i64 8
  tail call void @llvm.memset.p0.i64(ptr noundef nonnull align 8 dereferenceable(16) %22, i8 0, i64 16, i1 false)
  br label %32

23:                                               ; preds = %2
  %24 = getelementptr inbounds nuw i8, ptr %1, i64 8
  %25 = load ptr, ptr %24, align 8, !tbaa !52
  %26 = getelementptr inbounds nuw i8, ptr %1, i64 16
  %27 = load i64, ptr %26, align 8, !tbaa !53
  %28 = getelementptr inbounds nuw i8, ptr %1, i64 32
  %29 = load i64, ptr %28, align 8, !tbaa !55
  store ptr %25, ptr %0, align 8, !tbaa !32, !alias.scope !63
  %30 = getelementptr inbounds nuw i8, ptr %0, i64 8
  store i64 %27, ptr %30, align 8, !tbaa !16, !alias.scope !63
  %31 = getelementptr inbounds nuw i8, ptr %0, i64 16
  store i64 %29, ptr %31, align 8, !tbaa !18, !alias.scope !63
  br label %32

32:                                               ; preds = %10, %19, %23
  ret void
}